CCS PCM C Compiler, Version 4.108, 26124               13-Nov-11 15:21

               Filename: F:\AGV\Programa\16f819\encoder.lst

               ROM used: 124 words (6%)
                         Largest free fragment is 1924
               RAM used: 13 (5%) at main() level
                         13 (5%) worst case
               Stack:    1 worst case (0 in main + 1 for interrupts)

*
0000:  MOVLW  00
0001:  MOVWF  0A
0002:  GOTO   038
0003:  NOP
0004:  MOVWF  7F
0005:  SWAPF  03,W
0006:  CLRF   03
0007:  MOVWF  21
0008:  MOVF   7F,W
0009:  MOVWF  20
000A:  MOVF   0A,W
000B:  MOVWF  27
000C:  CLRF   0A
000D:  SWAPF  20,F
000E:  MOVF   04,W
000F:  MOVWF  22
0010:  MOVF   77,W
0011:  MOVWF  23
0012:  MOVF   78,W
0013:  MOVWF  24
0014:  MOVF   79,W
0015:  MOVWF  25
0016:  MOVF   7A,W
0017:  MOVWF  26
0018:  BCF    03.7
0019:  BCF    03.5
001A:  MOVLW  8C
001B:  MOVWF  04
001C:  BTFSS  00.3
001D:  GOTO   020
001E:  BTFSC  0C.3
001F:  GOTO   031
0020:  MOVF   22,W
0021:  MOVWF  04
0022:  MOVF   23,W
0023:  MOVWF  77
0024:  MOVF   24,W
0025:  MOVWF  78
0026:  MOVF   25,W
0027:  MOVWF  79
0028:  MOVF   26,W
0029:  MOVWF  7A
002A:  MOVF   27,W
002B:  MOVWF  0A
002C:  SWAPF  21,W
002D:  MOVWF  03
002E:  SWAPF  7F,F
002F:  SWAPF  7F,W
0030:  RETFIE
.................... #include <16F819.h> 
.................... //////// Standard Header file for the PIC16F819 device //////////////// 
.................... #device PIC16F819 
.................... #list 
....................  
.................... #device adc=8 
....................  
.................... #FUSES NOWDT                    //No Watch Dog Timer 
.................... #FUSES HS                       //High speed Osc (> 4mhz for PCM/PCH) (>10mhz for PCD) 
.................... #FUSES PUT                      //Power Up Timer 
.................... #FUSES MCLR                     //Master Clear pin enabled 
.................... #FUSES NOBROWNOUT               //No brownout reset 
.................... #FUSES NOLVP                    //No low voltage prgming, B3(PIC16) or B5(PIC18) used for I/O 
.................... #FUSES NOCPD                    //No EE protection 
.................... #FUSES NOWRT                    //Program memory not write protected 
.................... #FUSES NODEBUG                  //No Debug mode for ICD 
.................... #FUSES NOPROTECT                //Code not protected from reading 
....................  
.................... #use delay(clock=4000000) 
....................  
.................... //---------------------Configuracion del I2C---------------------------- 
....................  
.................... #use i2c(Slave,Slow,sda=PIN_B1,scl=PIN_B4,force_hw,address=0x08) 
.................... //-------------------Interrupcion del I2C---------------------------------- 
....................  
.................... #INT_SSP 
.................... void ssp_interupt(void) 
.................... { 
....................    output_high(PIN_B2); 
0031:  BSF    03.5
0032:  BCF    06.2
0033:  BCF    03.5
0034:  BSF    06.2
.................... } 
....................  
0035:  BCF    0C.3
0036:  BCF    0A.3
0037:  GOTO   020
.................... void main() 
.................... { 
0038:  CLRF   04
0039:  BCF    03.7
003A:  MOVLW  1F
003B:  ANDWF  03,F
003C:  BSF    03.5
003D:  BSF    06.4
003E:  BSF    06.1
003F:  MOVLW  08
0040:  MOVWF  13
0041:  MOVLW  36
0042:  BCF    03.5
0043:  MOVWF  14
0044:  BSF    03.5
0045:  BSF    1F.0
0046:  BSF    1F.1
0047:  BSF    1F.2
0048:  BCF    1F.3
....................  
....................    setup_adc_ports(NO_ANALOGS); 
0049:  BSF    1F.0
004A:  BSF    1F.1
004B:  BSF    1F.2
004C:  BCF    1F.3
....................    setup_adc(ADC_CLOCK_DIV_2); 
004D:  BCF    1F.6
004E:  BCF    03.5
004F:  BCF    1F.6
0050:  BCF    1F.7
0051:  BSF    03.5
0052:  BCF    1F.7
0053:  BCF    03.5
0054:  BSF    1F.0
....................    setup_spi(SPI_SS_DISABLED); 
0055:  BCF    14.5
0056:  BSF    03.5
0057:  BCF    06.2
0058:  BSF    06.1
0059:  BCF    06.4
005A:  MOVLW  01
005B:  BCF    03.5
005C:  MOVWF  14
005D:  MOVLW  00
005E:  BSF    03.5
005F:  MOVWF  14
....................    setup_timer_0(RTCC_INTERNAL|RTCC_DIV_1); 
0060:  MOVF   01,W
0061:  ANDLW  C7
0062:  IORLW  08
0063:  MOVWF  01
....................    setup_timer_1(T1_DISABLED); 
0064:  BCF    03.5
0065:  CLRF   10
....................    setup_timer_2(T2_DISABLED,0,1); 
0066:  MOVLW  00
0067:  MOVWF  78
0068:  MOVWF  12
0069:  MOVLW  00
006A:  BSF    03.5
006B:  MOVWF  12
....................    setup_ccp1(CCP_OFF); 
006C:  BSF    06.2
006D:  BCF    03.5
006E:  CLRF   17
....................    enable_interrupts(INT_SSP); 
006F:  BSF    03.5
0070:  BSF    0C.3
....................    enable_interrupts(global); 
0071:  MOVLW  C0
0072:  BCF    03.5
0073:  IORWF  0B,F
....................    set_tris_b(0x00); 
0074:  MOVLW  00
0075:  BSF    03.5
0076:  MOVWF  06
....................    //TODO: User Code 
....................    output_b(0x00); 
0077:  CLRF   06
0078:  BCF    03.5
0079:  CLRF   06
....................     
....................    while(1) 
....................    { 
....................     
....................    } 
007A:  GOTO   07A
.................... } 
007B:  SLEEP

Configuration Fuses:
   Word  1: 3F22   HS NOWDT PUT MCLR NOBROWNOUT NOLVP NOCPD NOWRT NODEBUG CCPB2 NOPROTECT
